target datalayout = "e-m:e-p270:32:32-p271:32:32-p272:64:64-i64:64-i128:128-f80:128-n8:16:32:64-S128"
target triple = "x86_64-unknown-linux-gnu"

%class.aiMatrix4x4t = type { float, float, float, float, float, float, float, float, float, float, float, float, float, float, float, float }
%struct.aiNode = type { %struct.aiString, %class.aiMatrix4x4t, ptr, i32, ptr, i32, ptr, ptr }
%struct.aiString = type { i32, [1024 x i8] }
%struct.aiScene = type { i32, ptr, i32, ptr, i32, ptr, i32, ptr, i32, ptr, i32, ptr, i32, ptr, ptr, %struct.aiString, i32, ptr, ptr }
%struct.aiMesh = type { i32, i32, i32, ptr, ptr, ptr, ptr, [8 x ptr], [8 x ptr], [8 x i32], ptr, i32, ptr, i32, %struct.aiString, i32, ptr, i32, %struct.aiAABB, ptr }
%struct.aiAABB = type { %class.aiVector3t, %class.aiVector3t }
%class.aiVector3t = type { float, float, float }

; Function Attrs: mustprogress uwtable
define internal noundef i32 @_ZN12_GLOBAL__N_114GetMeshVFormatEP6aiMesh(ptr noundef %pcMesh) #3 {
entry:
  %retval = alloca i32, align 4
  %pcMesh.addr = alloca ptr, align 8
  %iRet = alloca i32, align 4
  store ptr %pcMesh, ptr %pcMesh.addr, align 8
  %0 = load ptr, ptr %pcMesh.addr, align 8
  %mBones = getelementptr inbounds %struct.aiMesh, ptr %0, i32 0, i32 12
  %1 = load ptr, ptr %mBones, align 8
  %tobool = icmp ne ptr %1, null
  br i1 %tobool, label %if.then, label %if.end

if.then:                                          ; preds = %entry
  %2 = load ptr, ptr %pcMesh.addr, align 8
  %mBones1 = getelementptr inbounds %struct.aiMesh, ptr %2, i32 0, i32 12
  %3 = load ptr, ptr %mBones1, align 8
  %4 = ptrtoint ptr %3 to i64
  %conv = trunc i64 %4 to i32
  store i32 %conv, ptr %retval, align 4
  br label %return

if.end:                                           ; preds = %entry
  %5 = load ptr, ptr %pcMesh.addr, align 8
  %call = call noundef i32 @_ZN6Assimp20GetMeshVFormatUniqueEPK6aiMesh(ptr noundef %5)
  store i32 %call, ptr %iRet, align 4
  %6 = load i32, ptr %iRet, align 4
  %conv2 = zext i32 %6 to i64
  %7 = inttoptr i64 %conv2 to ptr
  %8 = load ptr, ptr %pcMesh.addr, align 8
  %mBones3 = getelementptr inbounds %struct.aiMesh, ptr %8, i32 0, i32 12
  store ptr %7, ptr %mBones3, align 8
  %9 = load i32, ptr %iRet, align 4
  store i32 %9, ptr %retval, align 4
  br label %return

return:                                           ; preds = %if.end, %if.then
  %10 = load i32, ptr %retval, align 4
  ret i32 %10
}

; Function Attrs: mustprogress uwtable
define void @_ZNK6Assimp20PretransformVertices21CountVerticesAndFacesEPK7aiScenePK6aiNodejjPjS7_(ptr noundef nonnull align 8 dereferenceable(93) %this, ptr noundef %pcScene, ptr noundef %pcNode, i32 noundef %iMat, i32 noundef %iVFormat, ptr noundef %piFaces, ptr noundef %piVertices) #3 align 2 {
entry:
  %this.addr = alloca ptr, align 8
  %pcScene.addr = alloca ptr, align 8
  %pcNode.addr = alloca ptr, align 8
  %iMat.addr = alloca i32, align 4
  %iVFormat.addr = alloca i32, align 4
  %piFaces.addr = alloca ptr, align 8
  %piVertices.addr = alloca ptr, align 8
  %i = alloca i32, align 4
  %pcMesh = alloca ptr, align 8
  %i8 = alloca i32, align 4
  store ptr %this, ptr %this.addr, align 8
  store ptr %pcScene, ptr %pcScene.addr, align 8
  store ptr %pcNode, ptr %pcNode.addr, align 8
  store i32 %iMat, ptr %iMat.addr, align 4
  store i32 %iVFormat, ptr %iVFormat.addr, align 4
  store ptr %piFaces, ptr %piFaces.addr, align 8
  store ptr %piVertices, ptr %piVertices.addr, align 8
  %this1 = load ptr, ptr %this.addr, align 8
  store i32 0, ptr %i, align 4
  br label %for.cond

for.cond:                                         ; preds = %for.inc, %entry
  %0 = load i32, ptr %i, align 4
  %1 = load ptr, ptr %pcNode.addr, align 8
  %mNumMeshes = getelementptr inbounds %struct.aiNode, ptr %1, i32 0, i32 5
  %2 = load i32, ptr %mNumMeshes, align 8
  %cmp = icmp ult i32 %0, %2
  br i1 %cmp, label %for.body, label %for.end

for.body:                                         ; preds = %for.cond
  %3 = load ptr, ptr %pcScene.addr, align 8
  %mMeshes = getelementptr inbounds %struct.aiScene, ptr %3, i32 0, i32 3
  %4 = load ptr, ptr %mMeshes, align 8
  %5 = load ptr, ptr %pcNode.addr, align 8
  %mMeshes2 = getelementptr inbounds %struct.aiNode, ptr %5, i32 0, i32 6
  %6 = load ptr, ptr %mMeshes2, align 8
  %7 = load i32, ptr %i, align 4
  %idxprom = zext i32 %7 to i64
  %arrayidx = getelementptr inbounds i32, ptr %6, i64 %idxprom
  %8 = load i32, ptr %arrayidx, align 4
  %idxprom3 = zext i32 %8 to i64
  %arrayidx4 = getelementptr inbounds ptr, ptr %4, i64 %idxprom3
  %9 = load ptr, ptr %arrayidx4, align 8
  store ptr %9, ptr %pcMesh, align 8
  %10 = load i32, ptr %iMat.addr, align 4
  %11 = load ptr, ptr %pcMesh, align 8
  %mMaterialIndex = getelementptr inbounds %struct.aiMesh, ptr %11, i32 0, i32 13
  %12 = load i32, ptr %mMaterialIndex, align 8
  %cmp5 = icmp eq i32 %10, %12
  br i1 %cmp5, label %land.lhs.true, label %if.end

land.lhs.true:                                    ; preds = %for.body
  %13 = load i32, ptr %iVFormat.addr, align 4
  %14 = load ptr, ptr %pcMesh, align 8
  %call = call noundef i32 @_ZN12_GLOBAL__N_114GetMeshVFormatEP6aiMesh(ptr noundef %14)
  %cmp6 = icmp eq i32 %13, %call
  br i1 %cmp6, label %if.then, label %if.end

if.then:                                          ; preds = %land.lhs.true
  %15 = load ptr, ptr %pcMesh, align 8
  %mNumVertices = getelementptr inbounds %struct.aiMesh, ptr %15, i32 0, i32 1
  %16 = load i32, ptr %mNumVertices, align 4
  %17 = load ptr, ptr %piVertices.addr, align 8
  %18 = load i32, ptr %17, align 4
  %add = add i32 %18, %16
  store i32 %add, ptr %17, align 4
  %19 = load ptr, ptr %pcMesh, align 8
  %mNumFaces = getelementptr inbounds %struct.aiMesh, ptr %19, i32 0, i32 2
  %20 = load i32, ptr %mNumFaces, align 8
  %21 = load ptr, ptr %piFaces.addr, align 8
  %22 = load i32, ptr %21, align 4
  %add7 = add i32 %22, %20
  store i32 %add7, ptr %21, align 4
  br label %if.end

if.end:                                           ; preds = %if.then, %land.lhs.true, %for.body
  br label %for.inc

for.inc:                                          ; preds = %if.end
  %23 = load i32, ptr %i, align 4
  %inc = add i32 %23, 1
  store i32 %inc, ptr %i, align 4
  br label %for.cond, !llvm.loop !6

for.end:                                          ; preds = %for.cond
  store i32 0, ptr %i8, align 4
  br label %for.cond9

for.cond9:                                        ; preds = %for.inc14, %for.end
  %24 = load i32, ptr %i8, align 4
  %25 = load ptr, ptr %pcNode.addr, align 8
  %mNumChildren = getelementptr inbounds %struct.aiNode, ptr %25, i32 0, i32 3
  %26 = load i32, ptr %mNumChildren, align 8
  %cmp10 = icmp ult i32 %24, %26
  br i1 %cmp10, label %for.body11, label %for.end16

for.body11:                                       ; preds = %for.cond9
  %27 = load ptr, ptr %pcScene.addr, align 8
  %28 = load ptr, ptr %pcNode.addr, align 8
  %mChildren = getelementptr inbounds %struct.aiNode, ptr %28, i32 0, i32 4
  %29 = load ptr, ptr %mChildren, align 8
  %30 = load i32, ptr %i8, align 4
  %idxprom12 = zext i32 %30 to i64
  %arrayidx13 = getelementptr inbounds ptr, ptr %29, i64 %idxprom12
  %31 = load ptr, ptr %arrayidx13, align 8
  %32 = load i32, ptr %iMat.addr, align 4
  %33 = load i32, ptr %iVFormat.addr, align 4
  %34 = load ptr, ptr %piFaces.addr, align 8
  %35 = load ptr, ptr %piVertices.addr, align 8
  call void @_ZNK6Assimp20PretransformVertices21CountVerticesAndFacesEPK7aiScenePK6aiNodejjPjS7_(ptr noundef nonnull align 8 dereferenceable(93) %this1, ptr noundef %27, ptr noundef %31, i32 noundef %32, i32 noundef %33, ptr noundef %34, ptr noundef %35)
  br label %for.inc14

for.inc14:                                        ; preds = %for.body11
  %36 = load i32, ptr %i8, align 4
  %inc15 = add i32 %36, 1
  store i32 %inc15, ptr %i8, align 4
  br label %for.cond9, !llvm.loop !7

for.end16:                                        ; preds = %for.cond9
  ret void
}