; Function Attrs: mustprogress uwtable
define void @_ZNK6Assimp20PretransformVertices21CountVerticesAndFacesEPK7aiScenePK6aiNodejjPjS7_(ptr nocapture noundef nonnull readnone align 8 dereferenceable(93) %this, ptr nocapture noundef readonly %pcScene, ptr nocapture noundef readonly %pcNode, i32 noundef %iMat, i32 noundef %iVFormat, ptr nocapture noundef %piFaces, ptr nocapture noundef %piVertices) local_unnamed_addr #3 align 2 {
entry:
  %mNumMeshes = getelementptr inbounds i8, ptr %pcNode, i64 1120
  %0 = load i32, ptr %mNumMeshes, align 8
  %cmp16.not = icmp eq i32 %0, 0
  br i1 %cmp16.not, label %for.cond9.preheader, label %for.body.lr.ph

for.body.lr.ph:                                   ; preds = %entry
  %mMeshes = getelementptr inbounds i8, ptr %pcScene, i64 24
  %mMeshes2 = getelementptr inbounds i8, ptr %pcNode, i64 1128
  br label %for.body

for.cond9.preheader:                              ; preds = %for.inc, %entry
  %mNumChildren = getelementptr inbounds i8, ptr %pcNode, i64 1104
  %1 = load i32, ptr %mNumChildren, align 8
  %cmp1018.not = icmp eq i32 %1, 0
  br i1 %cmp1018.not, label %for.end16, label %for.body11.lr.ph

for.body11.lr.ph:                                 ; preds = %for.cond9.preheader
  %mChildren = getelementptr inbounds i8, ptr %pcNode, i64 1112
  br label %for.body11

for.body:                                         ; preds = %for.body.lr.ph, %for.inc
  %indvars.iv = phi i64 [ 0, %for.body.lr.ph ], [ %indvars.iv.next, %for.inc ]
  %2 = load ptr, ptr %mMeshes, align 8
  %3 = load ptr, ptr %mMeshes2, align 8
  %arrayidx = getelementptr inbounds i32, ptr %3, i64 %indvars.iv
  %4 = load i32, ptr %arrayidx, align 4
  %idxprom3 = zext i32 %4 to i64
  %arrayidx4 = getelementptr inbounds ptr, ptr %2, i64 %idxprom3
  %5 = load ptr, ptr %arrayidx4, align 8
  %mMaterialIndex = getelementptr inbounds i8, ptr %5, i64 232
  %6 = load i32, ptr %mMaterialIndex, align 8
  %cmp5 = icmp eq i32 %6, %iMat
  br i1 %cmp5, label %land.lhs.true, label %for.inc

land.lhs.true:                                    ; preds = %for.body
  %mBones.i = getelementptr inbounds i8, ptr %5, i64 224
  %7 = load ptr, ptr %mBones.i, align 8
  %tobool.not.i = icmp eq ptr %7, null
  br i1 %tobool.not.i, label %if.end.i, label %if.then.i

if.then.i:                                        ; preds = %land.lhs.true
  %8 = ptrtoint ptr %7 to i64
  %conv.i = trunc i64 %8 to i32
  br label %_ZN12_GLOBAL__N_114GetMeshVFormatEP6aiMesh.exit

if.end.i:                                         ; preds = %land.lhs.true
  %call.i = tail call noundef i32 @_ZN6Assimp20GetMeshVFormatUniqueEPK6aiMesh(ptr noundef nonnull %5)
  %conv2.i = zext i32 %call.i to i64
  %9 = inttoptr i64 %conv2.i to ptr
  store ptr %9, ptr %mBones.i, align 8
  br label %_ZN12_GLOBAL__N_114GetMeshVFormatEP6aiMesh.exit

_ZN12_GLOBAL__N_114GetMeshVFormatEP6aiMesh.exit:  ; preds = %if.then.i, %if.end.i
  %retval.0.i = phi i32 [ %conv.i, %if.then.i ], [ %call.i, %if.end.i ]
  %cmp6 = icmp eq i32 %retval.0.i, %iVFormat
  br i1 %cmp6, label %if.then, label %for.inc

if.then:                                          ; preds = %_ZN12_GLOBAL__N_114GetMeshVFormatEP6aiMesh.exit
  %mNumVertices = getelementptr inbounds i8, ptr %5, i64 4
  %10 = load i32, ptr %mNumVertices, align 4
  %11 = load i32, ptr %piVertices, align 4
  %add = add i32 %11, %10
  store i32 %add, ptr %piVertices, align 4
  %mNumFaces = getelementptr inbounds i8, ptr %5, i64 8
  %12 = load i32, ptr %mNumFaces, align 8
  %13 = load i32, ptr %piFaces, align 4
  %add7 = add i32 %13, %12
  store i32 %add7, ptr %piFaces, align 4
  br label %for.inc

for.inc:                                          ; preds = %for.body, %_ZN12_GLOBAL__N_114GetMeshVFormatEP6aiMesh.exit, %if.then
  %indvars.iv.next = add nuw nsw i64 %indvars.iv, 1
  %14 = load i32, ptr %mNumMeshes, align 8
  %15 = zext i32 %14 to i64
  %cmp = icmp ult i64 %indvars.iv.next, %15
  br i1 %cmp, label %for.body, label %for.cond9.preheader, !llvm.loop !6

for.body11:                                       ; preds = %for.body11.lr.ph, %for.body11
  %indvars.iv21 = phi i64 [ 0, %for.body11.lr.ph ], [ %indvars.iv.next22, %for.body11 ]
  %16 = load ptr, ptr %mChildren, align 8
  %arrayidx13 = getelementptr inbounds ptr, ptr %16, i64 %indvars.iv21
  %17 = load ptr, ptr %arrayidx13, align 8
  tail call void @_ZNK6Assimp20PretransformVertices21CountVerticesAndFacesEPK7aiScenePK6aiNodejjPjS7_(ptr noundef nonnull align 8 dereferenceable(93) %this, ptr noundef %pcScene, ptr noundef %17, i32 noundef %iMat, i32 noundef %iVFormat, ptr noundef %piFaces, ptr noundef %piVertices)
  %indvars.iv.next22 = add nuw nsw i64 %indvars.iv21, 1
  %18 = load i32, ptr %mNumChildren, align 8
  %19 = zext i32 %18 to i64
  %cmp10 = icmp ult i64 %indvars.iv.next22, %19
  br i1 %cmp10, label %for.body11, label %for.end16, !llvm.loop !7

for.end16:                                        ; preds = %for.body11, %for.cond9.preheader
  ret void
}